target datalayout = "e-m:e-p270:32:32-p271:32:32-p272:64:64-i64:64-i128:128-f80:128-n8:16:32:64-S128"
target triple = "x86_64-unknown-linux-gnu"

%"class.datalog::check_table_plugin" = type <{ %"class.datalog::table_plugin", ptr, ptr, i32, [4 x i8] }>
%"class.datalog::table_plugin" = type { %"class.datalog::tr_infrastructure<datalog::table_traits>::plugin_object" }
%"class.datalog::tr_infrastructure<datalog::table_traits>::plugin_object" = type { ptr, i32, %class.symbol, ptr }
%class.symbol = type { ptr }

@__FUNCTION__._ZN7datalog18check_table_plugin8mk_emptyERKNS_15table_signatureE = private unnamed_addr constant [9 x i8] c"mk_empty\00", align 1
@.str = private unnamed_addr constant [2 x i8] c"\0A\00", align 1
@_ZN7datalog11check_tableC1ERNS_18check_table_pluginERKNS_15table_signatureEPNS_10table_baseES7_ = hidden unnamed_addr alias void (ptr, ptr, ptr, ptr, ptr), ptr @_ZN7datalog11check_tableC2ERNS_18check_table_pluginERKNS_15table_signatureEPNS_10table_baseES7_

; Function Attrs: mustprogress uwtable
define hidden noundef ptr @_ZN7datalog18check_table_plugin8mk_emptyERKNS_15table_signatureE(ptr noundef nonnull align 8 dereferenceable(52) %this, ptr noundef nonnull align 8 dereferenceable(12) %s) unnamed_addr #4 align 2 {
entry:
  %this.addr = alloca ptr, align 8
  %s.addr = alloca ptr, align 8
  %checker = alloca ptr, align 8
  %tocheck = alloca ptr, align 8
  store ptr %this, ptr %this.addr, align 8
  store ptr %s, ptr %s.addr, align 8
  %this1 = load ptr, ptr %this.addr, align 8
  %call = call noundef i32 @_Z19get_verbosity_levelv()
  %cmp = icmp uge i32 %call, 1
  br i1 %cmp, label %if.then, label %if.end10

if.then:                                          ; preds = %entry
  %call2 = call noundef zeroext i1 @_Z11is_threadedv()
  br i1 %call2, label %if.then3, label %if.else

if.then3:                                         ; preds = %if.then
  call void @_Z12verbose_lockv()
  %call4 = call noundef nonnull align 8 dereferenceable(8) ptr @_Z14verbose_streamv()
  %call5 = call noundef nonnull align 8 dereferenceable(8) ptr @_ZStlsISt11char_traitsIcEERSt13basic_ostreamIcT_ES5_PKc(ptr noundef nonnull align 8 dereferenceable(8) %call4, ptr noundef @__FUNCTION__._ZN7datalog18check_table_plugin8mk_emptyERKNS_15table_signatureE)
  %call6 = call noundef nonnull align 8 dereferenceable(8) ptr @_ZStlsISt11char_traitsIcEERSt13basic_ostreamIcT_ES5_PKc(ptr noundef nonnull align 8 dereferenceable(8) %call5, ptr noundef @.str)
  call void @_Z14verbose_unlockv()
  br label %if.end

if.else:                                          ; preds = %if.then
  %call7 = call noundef nonnull align 8 dereferenceable(8) ptr @_Z14verbose_streamv()
  %call8 = call noundef nonnull align 8 dereferenceable(8) ptr @_ZStlsISt11char_traitsIcEERSt13basic_ostreamIcT_ES5_PKc(ptr noundef nonnull align 8 dereferenceable(8) %call7, ptr noundef @__FUNCTION__._ZN7datalog18check_table_plugin8mk_emptyERKNS_15table_signatureE)
  %call9 = call noundef nonnull align 8 dereferenceable(8) ptr @_ZStlsISt11char_traitsIcEERSt13basic_ostreamIcT_ES5_PKc(ptr noundef nonnull align 8 dereferenceable(8) %call8, ptr noundef @.str)
  br label %if.end

if.end:                                           ; preds = %if.else, %if.then3
  br label %if.end10

if.end10:                                         ; preds = %if.end, %entry
  %m_checker = getelementptr inbounds %"class.datalog::check_table_plugin", ptr %this1, i32 0, i32 1
  %0 = load ptr, ptr %m_checker, align 8
  %1 = load ptr, ptr %s.addr, align 8
  %vtable = load ptr, ptr %0, align 8
  %vfn = getelementptr inbounds ptr, ptr %vtable, i64 5
  %2 = load ptr, ptr %vfn, align 8
  %call11 = call noundef ptr %2(ptr noundef nonnull align 8 dereferenceable(32) %0, ptr noundef nonnull align 8 dereferenceable(12) %1)
  store ptr %call11, ptr %checker, align 8
  %m_tocheck = getelementptr inbounds %"class.datalog::check_table_plugin", ptr %this1, i32 0, i32 2
  %3 = load ptr, ptr %m_tocheck, align 8
  %4 = load ptr, ptr %s.addr, align 8
  %vtable12 = load ptr, ptr %3, align 8
  %vfn13 = getelementptr inbounds ptr, ptr %vtable12, i64 5
  %5 = load ptr, ptr %vfn13, align 8
  %call14 = call noundef ptr %5(ptr noundef nonnull align 8 dereferenceable(32) %3, ptr noundef nonnull align 8 dereferenceable(12) %4)
  store ptr %call14, ptr %tocheck, align 8
  %call15 = call noalias noundef ptr @_ZN6memory8allocateEm(i64 noundef 56)
  %6 = load ptr, ptr %s.addr, align 8
  %7 = load ptr, ptr %tocheck, align 8
  %8 = load ptr, ptr %checker, align 8
  call void @_ZN7datalog11check_tableC1ERNS_18check_table_pluginERKNS_15table_signatureEPNS_10table_baseES7_(ptr noundef nonnull align 8 dereferenceable(56) %call15, ptr noundef nonnull align 8 dereferenceable(52) %this1, ptr noundef nonnull align 8 dereferenceable(12) %6, ptr noundef %7, ptr noundef %8)
  ret ptr %call15
}